target datalayout = "e-m:e-p270:32:32-p271:32:32-p272:64:64-i64:64-i128:128-f80:128-n8:16:32:64-S128"
target triple = "x86_64-pc-linux-gnu"

%struct.AVTreeNode = type { [2 x ptr], ptr, i32 }

; Function Attrs: nounwind uwtable
define void @av_tree_enumerate(ptr noundef %0, ptr noundef %1, ptr noundef %2, ptr noundef %3) #0 {
  %5 = alloca ptr, align 8
  %6 = alloca ptr, align 8
  %7 = alloca ptr, align 8
  %8 = alloca ptr, align 8
  %9 = alloca i32, align 4
  store ptr %0, ptr %5, align 8, !tbaa !4
  store ptr %1, ptr %6, align 8, !tbaa !9
  store ptr %2, ptr %7, align 8, !tbaa !9
  store ptr %3, ptr %8, align 8, !tbaa !9
  %10 = load ptr, ptr %5, align 8, !tbaa !4
  %11 = icmp ne ptr %10, null
  br i1 %11, label %12, label %57

12:                                               ; preds = %4
  call void @llvm.lifetime.start.p0(i64 4, ptr %9) #3
  %13 = load ptr, ptr %7, align 8, !tbaa !9
  %14 = icmp ne ptr %13, null
  br i1 %14, label %15, label %22

15:                                               ; preds = %12
  %16 = load ptr, ptr %7, align 8, !tbaa !9
  %17 = load ptr, ptr %6, align 8, !tbaa !9
  %18 = load ptr, ptr %5, align 8, !tbaa !4
  %19 = getelementptr inbounds nuw %struct.AVTreeNode, ptr %18, i32 0, i32 1
  %20 = load ptr, ptr %19, align 8, !tbaa !12
  %21 = call i32 %16(ptr noundef %17, ptr noundef %20)
  br label %23

22:                                               ; preds = %12
  br label %23

23:                                               ; preds = %22, %15
  %24 = phi i32 [ %21, %15 ], [ 0, %22 ]
  store i32 %24, ptr %9, align 4, !tbaa !15
  %25 = load i32, ptr %9, align 4, !tbaa !15
  %26 = icmp sge i32 %25, 0
  br i1 %26, label %27, label %35

27:                                               ; preds = %23
  %28 = load ptr, ptr %5, align 8, !tbaa !4
  %29 = getelementptr inbounds nuw %struct.AVTreeNode, ptr %28, i32 0, i32 0
  %30 = getelementptr inbounds [2 x ptr], ptr %29, i64 0, i64 0
  %31 = load ptr, ptr %30, align 8, !tbaa !4
  %32 = load ptr, ptr %6, align 8, !tbaa !9
  %33 = load ptr, ptr %7, align 8, !tbaa !9
  %34 = load ptr, ptr %8, align 8, !tbaa !9
  call void @av_tree_enumerate(ptr noundef %31, ptr noundef %32, ptr noundef %33, ptr noundef %34)
  br label %35

35:                                               ; preds = %27, %23
  %36 = load i32, ptr %9, align 4, !tbaa !15
  %37 = icmp eq i32 %36, 0
  br i1 %37, label %38, label %45

38:                                               ; preds = %35
  %39 = load ptr, ptr %8, align 8, !tbaa !9
  %40 = load ptr, ptr %6, align 8, !tbaa !9
  %41 = load ptr, ptr %5, align 8, !tbaa !4
  %42 = getelementptr inbounds nuw %struct.AVTreeNode, ptr %41, i32 0, i32 1
  %43 = load ptr, ptr %42, align 8, !tbaa !12
  %44 = call i32 %39(ptr noundef %40, ptr noundef %43)
  br label %45

45:                                               ; preds = %38, %35
  %46 = load i32, ptr %9, align 4, !tbaa !15
  %47 = icmp sle i32 %46, 0
  br i1 %47, label %48, label %56

48:                                               ; preds = %45
  %49 = load ptr, ptr %5, align 8, !tbaa !4
  %50 = getelementptr inbounds nuw %struct.AVTreeNode, ptr %49, i32 0, i32 0
  %51 = getelementptr inbounds [2 x ptr], ptr %50, i64 0, i64 1
  %52 = load ptr, ptr %51, align 8, !tbaa !4
  %53 = load ptr, ptr %6, align 8, !tbaa !9
  %54 = load ptr, ptr %7, align 8, !tbaa !9
  %55 = load ptr, ptr %8, align 8, !tbaa !9
  call void @av_tree_enumerate(ptr noundef %52, ptr noundef %53, ptr noundef %54, ptr noundef %55)
  br label %56

56:                                               ; preds = %48, %45
  call void @llvm.lifetime.end.p0(i64 4, ptr %9) #3
  br label %57

57:                                               ; preds = %56, %4
  ret void
}