; Function Attrs: nounwind uwtable
define void @av_tree_enumerate(ptr noundef readonly captures(address_is_null) %0, ptr noundef %1, ptr noundef readonly captures(address_is_null) %2, ptr noundef %3) local_unnamed_addr #0 {
  %.not26 = icmp eq ptr %0, null
  br i1 %.not26, label %._crit_edge, label %.lr.ph

.lr.ph:                                           ; preds = %4
  %.not19 = icmp eq ptr %2, null
  br i1 %.not19, label %.thread21.us, label %.lr.ph.split

.thread21.us:                                     ; preds = %.lr.ph, %.thread21.us
  %.tr27.us = phi ptr [ %10, %.thread21.us ], [ %0, %.lr.ph ]
  %5 = load ptr, ptr %.tr27.us, align 8, !tbaa !10
  tail call void @av_tree_enumerate(ptr noundef %5, ptr noundef %1, ptr noundef null, ptr noundef %3)
  %6 = getelementptr inbounds nuw i8, ptr %.tr27.us, i64 16
  %7 = load ptr, ptr %6, align 8, !tbaa !4
  %8 = tail call i32 %3(ptr noundef %1, ptr noundef %7) #3
  %9 = getelementptr inbounds nuw i8, ptr %.tr27.us, i64 8
  %10 = load ptr, ptr %9, align 8, !tbaa !10
  %.not.us = icmp eq ptr %10, null
  br i1 %.not.us, label %._crit_edge, label %.thread21.us

.lr.ph.split:                                     ; preds = %.lr.ph, %.thread20
  %.tr27 = phi ptr [ %22, %.thread20 ], [ %0, %.lr.ph ]
  %11 = getelementptr inbounds nuw i8, ptr %.tr27, i64 16
  %12 = load ptr, ptr %11, align 8, !tbaa !4
  %13 = tail call i32 %2(ptr noundef %1, ptr noundef %12) #3
  %14 = icmp sgt i32 %13, -1
  br i1 %14, label %15, label %.thread20

15:                                               ; preds = %.lr.ph.split
  %16 = load ptr, ptr %.tr27, align 8, !tbaa !10
  tail call void @av_tree_enumerate(ptr noundef %16, ptr noundef %1, ptr noundef nonnull %2, ptr noundef %3)
  %17 = icmp eq i32 %13, 0
  br i1 %17, label %18, label %._crit_edge

18:                                               ; preds = %15
  %19 = load ptr, ptr %11, align 8, !tbaa !4
  %20 = tail call i32 %3(ptr noundef %1, ptr noundef %19) #3
  br label %.thread20

.thread20:                                        ; preds = %.lr.ph.split, %18
  %21 = getelementptr inbounds nuw i8, ptr %.tr27, i64 8
  %22 = load ptr, ptr %21, align 8, !tbaa !10
  %.not = icmp eq ptr %22, null
  br i1 %.not, label %._crit_edge, label %.lr.ph.split

._crit_edge:                                      ; preds = %.thread20, %15, %.thread21.us, %4
  ret void
}